; Function Attrs: mustprogress uwtable
define hidden void @_ZN7datalog23product_relation_plugin10initializeEi(ptr noundef nonnull align 8 dereferenceable(104) initializes((8, 12)) %0, i32 noundef %1) unnamed_addr #3 align 2 {
  %3 = getelementptr inbounds nuw i8, ptr %0, i64 8
  store i32 %1, ptr %3, align 8, !tbaa !3
  %4 = getelementptr inbounds nuw i8, ptr %0, i64 48
  %5 = load ptr, ptr %4, align 8, !tbaa !21
  %6 = icmp eq ptr %5, null
  br i1 %6, label %13, label %7

7:                                                ; preds = %2
  %8 = getelementptr inbounds i8, ptr %5, i64 -4
  %9 = load i32, ptr %8, align 4, !tbaa !39
  %10 = getelementptr inbounds i8, ptr %5, i64 -8
  %11 = load i32, ptr %10, align 4, !tbaa !39
  %12 = icmp eq i32 %9, %11
  br i1 %12, label %13, label %_ZN7datalog14rel_spec_storeINS_8rel_specE12svector_hashINS_23product_relation_plugin8fid_hashEENS_14vector_eq_procIS1_EEE18add_available_kindEi.exit

13:                                               ; preds = %7, %2
  tail call void @_ZN6vectorIiLb0EjE13expand_vectorEv(ptr noundef nonnull align 8 dereferenceable(8) %4)
  %.pre.i.i = load ptr, ptr %4, align 8, !tbaa !21
  %.phi.trans.insert.i.i = getelementptr inbounds i8, ptr %.pre.i.i, i64 -4
  %.pre2.i.i = load i32, ptr %.phi.trans.insert.i.i, align 4, !tbaa !39
  br label %_ZN7datalog14rel_spec_storeINS_8rel_specE12svector_hashINS_23product_relation_plugin8fid_hashEENS_14vector_eq_procIS1_EEE18add_available_kindEi.exit

_ZN7datalog14rel_spec_storeINS_8rel_specE12svector_hashINS_23product_relation_plugin8fid_hashEENS_14vector_eq_procIS1_EEE18add_available_kindEi.exit: ; preds = %7, %13
  %14 = phi i32 [ %.pre2.i.i, %13 ], [ %9, %7 ]
  %15 = phi ptr [ %.pre.i.i, %13 ], [ %5, %7 ]
  %16 = getelementptr inbounds i8, ptr %15, i64 -4
  %17 = zext i32 %14 to i64
  %18 = getelementptr inbounds nuw i32, ptr %15, i64 %17
  store i32 %1, ptr %18, align 4, !tbaa !39
  %19 = add i32 %14, 1
  store i32 %19, ptr %16, align 4, !tbaa !39
  ret void
}